
os_linnert.elf:     file format elf32-littlearm

Sections:
Idx Name          Size      VMA       LMA       File off  Algn
  0 .isr_vector   000001ac  08000000  08000000  00001000  2**0
                  CONTENTS, ALLOC, LOAD, READONLY, DATA
  1 .text         00000540  080001ac  080001ac  000011ac  2**2
                  CONTENTS, ALLOC, LOAD, READONLY, CODE
  2 .rodata       00000034  080006ec  080006ec  000016ec  2**2
                  CONTENTS, ALLOC, LOAD, READONLY, DATA
  3 .ARM.extab    00000000  08000720  08000720  00001728  2**0
                  CONTENTS, READONLY
  4 .ARM          00000000  08000720  08000720  00001728  2**0
                  CONTENTS, READONLY
  5 .preinit_array 00000000  08000720  08000728  00001728  2**0
                  CONTENTS, ALLOC, LOAD, DATA
  6 .init_array   00000004  08000720  08000720  00001720  2**2
                  CONTENTS, ALLOC, LOAD, READONLY, DATA
  7 .fini_array   00000004  08000724  08000724  00001724  2**2
                  CONTENTS, ALLOC, LOAD, READONLY, DATA
  8 .data         00000000  20000000  20000000  00001728  2**0
                  CONTENTS, ALLOC, LOAD, DATA
  9 .bss          0000001c  20000000  08000728  00002000  2**2
                  ALLOC
 10 ._user_heap_stack 00000604  2000001c  08000728  0000201c  2**0
                  ALLOC
 11 .ARM.attributes 00000030  00000000  00000000  00001728  2**0
                  CONTENTS, READONLY
 12 .debug_info   00000e1d  00000000  00000000  00001758  2**0
                  CONTENTS, READONLY, DEBUGGING, OCTETS
 13 .debug_abbrev 00000463  00000000  00000000  00002575  2**0
                  CONTENTS, READONLY, DEBUGGING, OCTETS
 14 .debug_aranges 000000d8  00000000  00000000  000029d8  2**3
                  CONTENTS, READONLY, DEBUGGING, OCTETS
 15 .debug_rnglists 0000008d  00000000  00000000  00002ab0  2**0
                  CONTENTS, READONLY, DEBUGGING, OCTETS
 16 .debug_macro  0002a1f5  00000000  00000000  00002b3d  2**0
                  CONTENTS, READONLY, DEBUGGING, OCTETS
 17 .debug_line   00002201  00000000  00000000  0002cd32  2**0
                  CONTENTS, READONLY, DEBUGGING, OCTETS
 18 .debug_str    0011330b  00000000  00000000  0002ef33  2**0
                  CONTENTS, READONLY, DEBUGGING, OCTETS
 19 .comment      00000043  00000000  00000000  0014223e  2**0
                  CONTENTS, READONLY
 20 .debug_frame  000001e4  00000000  00000000  00142284  2**2
                  CONTENTS, READONLY, DEBUGGING, OCTETS
 21 .debug_line_str 00000076  00000000  00000000  00142468  2**0
                  CONTENTS, READONLY, DEBUGGING, OCTETS

Disassembly of section .text:

080001ac <__do_global_dtors_aux>:
 80001ac:	b510      	push	{r4, lr}
 80001ae:	4c05      	ldr	r4, [pc, #20]	@ (80001c4 <__do_global_dtors_aux+0x18>)
 80001b0:	7823      	ldrb	r3, [r4, #0]
 80001b2:	b933      	cbnz	r3, 80001c2 <__do_global_dtors_aux+0x16>
 80001b4:	4b04      	ldr	r3, [pc, #16]	@ (80001c8 <__do_global_dtors_aux+0x1c>)
 80001b6:	b113      	cbz	r3, 80001be <__do_global_dtors_aux+0x12>
 80001b8:	4804      	ldr	r0, [pc, #16]	@ (80001cc <__do_global_dtors_aux+0x20>)
 80001ba:	f3af 8000 	nop.w
 80001be:	2301      	movs	r3, #1
 80001c0:	7023      	strb	r3, [r4, #0]
 80001c2:	bd10      	pop	{r4, pc}
 80001c4:	20000000 	.word	0x20000000
 80001c8:	00000000 	.word	0x00000000
 80001cc:	080006d4 	.word	0x080006d4

080001d0 <frame_dummy>:
 80001d0:	b508      	push	{r3, lr}
 80001d2:	4b03      	ldr	r3, [pc, #12]	@ (80001e0 <frame_dummy+0x10>)
 80001d4:	b11b      	cbz	r3, 80001de <frame_dummy+0xe>
 80001d6:	4903      	ldr	r1, [pc, #12]	@ (80001e4 <frame_dummy+0x14>)
 80001d8:	4803      	ldr	r0, [pc, #12]	@ (80001e8 <frame_dummy+0x18>)
 80001da:	f3af 8000 	nop.w
 80001de:	bd08      	pop	{r3, pc}
 80001e0:	00000000 	.word	0x00000000
 80001e4:	20000004 	.word	0x20000004
 80001e8:	080006d4 	.word	0x080006d4

080001ec <main>:
 80001ec:	b580      	push	{r7, lr}
 80001ee:	b082      	sub	sp, #8
 80001f0:	af00      	add	r7, sp, #0
 80001f2:	f44f 30e1 	mov.w	r0, #115200	@ 0x1c200
 80001f6:	f000 f977 	bl	80004e8 <uart2_init>
 80001fa:	4806      	ldr	r0, [pc, #24]	@ (8000214 <main+0x28>)
 80001fc:	f000 f83c 	bl	8000278 <uart_printf>
 8000200:	f000 fa06 	bl	8000610 <uart2_getc_blocking>
 8000204:	6078      	str	r0, [r7, #4]
 8000206:	6879      	ldr	r1, [r7, #4]
 8000208:	4803      	ldr	r0, [pc, #12]	@ (8000218 <main+0x2c>)
 800020a:	f000 f835 	bl	8000278 <uart_printf>
 800020e:	bf00      	nop
 8000210:	e7f6      	b.n	8000200 <main+0x14>
 8000212:	bf00      	nop
 8000214:	080006ec 	.word	0x080006ec
 8000218:	080006fc 	.word	0x080006fc

0800021c <uart_write_hex>:
 800021c:	b580      	push	{r7, lr}
 800021e:	b086      	sub	sp, #24
 8000220:	af00      	add	r7, sp, #0
 8000222:	6078      	str	r0, [r7, #4]
 8000224:	6039      	str	r1, [r7, #0]
 8000226:	683b      	ldr	r3, [r7, #0]
 8000228:	3b01      	subs	r3, #1
 800022a:	617b      	str	r3, [r7, #20]
 800022c:	e01b      	b.n	8000266 <uart_write_hex+0x4a>
 800022e:	697b      	ldr	r3, [r7, #20]
 8000230:	009b      	lsls	r3, r3, #2
 8000232:	687a      	ldr	r2, [r7, #4]
 8000234:	fa22 f303 	lsr.w	r3, r2, r3
 8000238:	f003 030f 	and.w	r3, r3, #15
 800023c:	613b      	str	r3, [r7, #16]
 800023e:	693b      	ldr	r3, [r7, #16]
 8000240:	2b09      	cmp	r3, #9
 8000242:	d804      	bhi.n	800024e <uart_write_hex+0x32>
 8000244:	693b      	ldr	r3, [r7, #16]
 8000246:	b2db      	uxtb	r3, r3
 8000248:	3330      	adds	r3, #48	@ 0x30
 800024a:	b2db      	uxtb	r3, r3
 800024c:	e003      	b.n	8000256 <uart_write_hex+0x3a>
 800024e:	693b      	ldr	r3, [r7, #16]
 8000250:	b2db      	uxtb	r3, r3
 8000252:	3357      	adds	r3, #87	@ 0x57
 8000254:	b2db      	uxtb	r3, r3
 8000256:	73fb      	strb	r3, [r7, #15]
 8000258:	7bfb      	ldrb	r3, [r7, #15]
 800025a:	4618      	mov	r0, r3
 800025c:	f000 f9a4 	bl	80005a8 <uart2_putc>
 8000260:	697b      	ldr	r3, [r7, #20]
 8000262:	3b01      	subs	r3, #1
 8000264:	617b      	str	r3, [r7, #20]
 8000266:	697b      	ldr	r3, [r7, #20]
 8000268:	2b00      	cmp	r3, #0
 800026a:	dae0      	bge.n	800022e <uart_write_hex+0x12>
 800026c:	bf00      	nop
 800026e:	bf00      	nop
 8000270:	3718      	adds	r7, #24
 8000272:	46bd      	mov	sp, r7
 8000274:	bd80      	pop	{r7, pc}
	...

08000278 <uart_printf>:
 8000278:	b40f      	push	{r0, r1, r2, r3}
 800027a:	b580      	push	{r7, lr}
 800027c:	b086      	sub	sp, #24
 800027e:	af00      	add	r7, sp, #0
 8000280:	f107 0324 	add.w	r3, r7, #36	@ 0x24
 8000284:	603b      	str	r3, [r7, #0]
 8000286:	6a3b      	ldr	r3, [r7, #32]
 8000288:	617b      	str	r3, [r7, #20]
 800028a:	e096      	b.n	80003ba <uart_printf+0x142>
 800028c:	697b      	ldr	r3, [r7, #20]
 800028e:	781b      	ldrb	r3, [r3, #0]
 8000290:	2b25      	cmp	r3, #37	@ 0x25
 8000292:	d00c      	beq.n	80002ae <uart_printf+0x36>
 8000294:	697b      	ldr	r3, [r7, #20]
 8000296:	781b      	ldrb	r3, [r3, #0]
 8000298:	2b0a      	cmp	r3, #10
 800029a:	d102      	bne.n	80002a2 <uart_printf+0x2a>
 800029c:	200d      	movs	r0, #13
 800029e:	f000 f983 	bl	80005a8 <uart2_putc>
 80002a2:	697b      	ldr	r3, [r7, #20]
 80002a4:	781b      	ldrb	r3, [r3, #0]
 80002a6:	4618      	mov	r0, r3
 80002a8:	f000 f97e 	bl	80005a8 <uart2_putc>
 80002ac:	e082      	b.n	80003b4 <uart_printf+0x13c>
 80002ae:	697b      	ldr	r3, [r7, #20]
 80002b0:	3301      	adds	r3, #1
 80002b2:	617b      	str	r3, [r7, #20]
 80002b4:	697b      	ldr	r3, [r7, #20]
 80002b6:	781b      	ldrb	r3, [r3, #0]
 80002b8:	2b25      	cmp	r3, #37	@ 0x25
 80002ba:	d037      	beq.n	800032c <uart_printf+0xb4>
 80002bc:	2b25      	cmp	r3, #37	@ 0x25
 80002be:	db69      	blt.n	8000394 <uart_printf+0x11c>
 80002c0:	2b78      	cmp	r3, #120	@ 0x78
 80002c2:	dc67      	bgt.n	8000394 <uart_printf+0x11c>
 80002c4:	2b63      	cmp	r3, #99	@ 0x63
 80002c6:	db65      	blt.n	8000394 <uart_printf+0x11c>
 80002c8:	3b63      	subs	r3, #99	@ 0x63
 80002ca:	2b15      	cmp	r3, #21
 80002cc:	d862      	bhi.n	8000394 <uart_printf+0x11c>
 80002ce:	a201      	add	r2, pc, #4	@ (adr r2, 80002d4 <uart_printf+0x5c>)
 80002d0:	f852 f023 	ldr.w	pc, [r2, r3, lsl #2]
 80002d4:	08000335 	.word	0x08000335
 80002d8:	08000395 	.word	0x08000395
 80002dc:	08000395 	.word	0x08000395
 80002e0:	08000395 	.word	0x08000395
 80002e4:	08000395 	.word	0x08000395
 80002e8:	08000395 	.word	0x08000395
 80002ec:	08000395 	.word	0x08000395
 80002f0:	08000395 	.word	0x08000395
 80002f4:	08000395 	.word	0x08000395
 80002f8:	08000395 	.word	0x08000395
 80002fc:	08000395 	.word	0x08000395
 8000300:	08000395 	.word	0x08000395
 8000304:	08000395 	.word	0x08000395
 8000308:	0800037b 	.word	0x0800037b
 800030c:	08000395 	.word	0x08000395
 8000310:	08000395 	.word	0x08000395
 8000314:	0800034b 	.word	0x0800034b
 8000318:	08000395 	.word	0x08000395
 800031c:	08000395 	.word	0x08000395
 8000320:	08000395 	.word	0x08000395
 8000324:	08000395 	.word	0x08000395
 8000328:	08000367 	.word	0x08000367
 800032c:	2025      	movs	r0, #37	@ 0x25
 800032e:	f000 f93b 	bl	80005a8 <uart2_putc>
 8000332:	e03f      	b.n	80003b4 <uart_printf+0x13c>
 8000334:	683b      	ldr	r3, [r7, #0]
 8000336:	1d1a      	adds	r2, r3, #4
 8000338:	603a      	str	r2, [r7, #0]
 800033a:	681b      	ldr	r3, [r3, #0]
 800033c:	607b      	str	r3, [r7, #4]
 800033e:	687b      	ldr	r3, [r7, #4]
 8000340:	b2db      	uxtb	r3, r3
 8000342:	4618      	mov	r0, r3
 8000344:	f000 f930 	bl	80005a8 <uart2_putc>
 8000348:	e034      	b.n	80003b4 <uart_printf+0x13c>
 800034a:	683b      	ldr	r3, [r7, #0]
 800034c:	1d1a      	adds	r2, r3, #4
 800034e:	603a      	str	r2, [r7, #0]
 8000350:	681b      	ldr	r3, [r3, #0]
 8000352:	613b      	str	r3, [r7, #16]
 8000354:	693b      	ldr	r3, [r7, #16]
 8000356:	2b00      	cmp	r3, #0
 8000358:	d101      	bne.n	800035e <uart_printf+0xe6>
 800035a:	4b1e      	ldr	r3, [pc, #120]	@ (80003d4 <uart_printf+0x15c>)
 800035c:	613b      	str	r3, [r7, #16]
 800035e:	6938      	ldr	r0, [r7, #16]
 8000360:	f000 f93a 	bl	80005d8 <uart2_write>
 8000364:	e026      	b.n	80003b4 <uart_printf+0x13c>
 8000366:	683b      	ldr	r3, [r7, #0]
 8000368:	1d1a      	adds	r2, r3, #4
 800036a:	603a      	str	r2, [r7, #0]
 800036c:	681b      	ldr	r3, [r3, #0]
 800036e:	60fb      	str	r3, [r7, #12]
 8000370:	2108      	movs	r1, #8
 8000372:	68f8      	ldr	r0, [r7, #12]
 8000374:	f7ff ff52 	bl	800021c <uart_write_hex>
 8000378:	e01c      	b.n	80003b4 <uart_printf+0x13c>
 800037a:	683b      	ldr	r3, [r7, #0]
 800037c:	1d1a      	adds	r2, r3, #4
 800037e:	603a      	str	r2, [r7, #0]
 8000380:	681b      	ldr	r3, [r3, #0]
 8000382:	60bb      	str	r3, [r7, #8]
 8000384:	4814      	ldr	r0, [pc, #80]	@ (80003d8 <uart_printf+0x160>)
 8000386:	f000 f927 	bl	80005d8 <uart2_write>
 800038a:	2108      	movs	r1, #8
 800038c:	68b8      	ldr	r0, [r7, #8]
 800038e:	f7ff ff45 	bl	800021c <uart_write_hex>
 8000392:	e00f      	b.n	80003b4 <uart_printf+0x13c>
 8000394:	2025      	movs	r0, #37	@ 0x25
 8000396:	f000 f907 	bl	80005a8 <uart2_putc>
 800039a:	697b      	ldr	r3, [r7, #20]
 800039c:	781b      	ldrb	r3, [r3, #0]
 800039e:	2b0a      	cmp	r3, #10
 80003a0:	d102      	bne.n	80003a8 <uart_printf+0x130>
 80003a2:	200d      	movs	r0, #13
 80003a4:	f000 f900 	bl	80005a8 <uart2_putc>
 80003a8:	697b      	ldr	r3, [r7, #20]
 80003aa:	781b      	ldrb	r3, [r3, #0]
 80003ac:	4618      	mov	r0, r3
 80003ae:	f000 f8fb 	bl	80005a8 <uart2_putc>
 80003b2:	bf00      	nop
 80003b4:	697b      	ldr	r3, [r7, #20]
 80003b6:	3301      	adds	r3, #1
 80003b8:	617b      	str	r3, [r7, #20]
 80003ba:	697b      	ldr	r3, [r7, #20]
 80003bc:	781b      	ldrb	r3, [r3, #0]
 80003be:	2b00      	cmp	r3, #0
 80003c0:	f47f af64 	bne.w	800028c <uart_printf+0x14>
 80003c4:	2300      	movs	r3, #0
 80003c6:	4618      	mov	r0, r3
 80003c8:	3718      	adds	r7, #24
 80003ca:	46bd      	mov	sp, r7
 80003cc:	e8bd 4080 	ldmia.w	sp!, {r7, lr}
 80003d0:	b004      	add	sp, #16
 80003d2:	4770      	bx	lr
 80003d4:	08000714 	.word	0x08000714
 80003d8:	0800071c 	.word	0x0800071c

080003dc <SystemInit>:
 80003dc:	b480      	push	{r7}
 80003de:	af00      	add	r7, sp, #0
 80003e0:	4b06      	ldr	r3, [pc, #24]	@ (80003fc <SystemInit+0x20>)
 80003e2:	f8d3 3088 	ldr.w	r3, [r3, #136]	@ 0x88
 80003e6:	4a05      	ldr	r2, [pc, #20]	@ (80003fc <SystemInit+0x20>)
 80003e8:	f443 0370 	orr.w	r3, r3, #15728640	@ 0xf00000
 80003ec:	f8c2 3088 	str.w	r3, [r2, #136]	@ 0x88
 80003f0:	bf00      	nop
 80003f2:	46bd      	mov	sp, r7
 80003f4:	f85d 7b04 	ldr.w	r7, [sp], #4
 80003f8:	4770      	bx	lr
 80003fa:	bf00      	nop
 80003fc:	e000ed00 	.word	0xe000ed00

08000400 <gpio_af7_usart2_pa2_pd6>:
 8000400:	b480      	push	{r7}
 8000402:	af00      	add	r7, sp, #0
 8000404:	4b36      	ldr	r3, [pc, #216]	@ (80004e0 <gpio_af7_usart2_pa2_pd6+0xe0>)
 8000406:	6cdb      	ldr	r3, [r3, #76]	@ 0x4c
 8000408:	4a35      	ldr	r2, [pc, #212]	@ (80004e0 <gpio_af7_usart2_pa2_pd6+0xe0>)
 800040a:	f043 0309 	orr.w	r3, r3, #9
 800040e:	64d3      	str	r3, [r2, #76]	@ 0x4c
 8000410:	f04f 4390 	mov.w	r3, #1207959552	@ 0x48000000
 8000414:	681b      	ldr	r3, [r3, #0]
 8000416:	f04f 4290 	mov.w	r2, #1207959552	@ 0x48000000
 800041a:	f023 0330 	bic.w	r3, r3, #48	@ 0x30
 800041e:	6013      	str	r3, [r2, #0]
 8000420:	f04f 4390 	mov.w	r3, #1207959552	@ 0x48000000
 8000424:	681b      	ldr	r3, [r3, #0]
 8000426:	f04f 4290 	mov.w	r2, #1207959552	@ 0x48000000
 800042a:	f043 0320 	orr.w	r3, r3, #32
 800042e:	6013      	str	r3, [r2, #0]
 8000430:	f04f 4390 	mov.w	r3, #1207959552	@ 0x48000000
 8000434:	6a1b      	ldr	r3, [r3, #32]
 8000436:	f04f 4290 	mov.w	r2, #1207959552	@ 0x48000000
 800043a:	f423 6370 	bic.w	r3, r3, #3840	@ 0xf00
 800043e:	6213      	str	r3, [r2, #32]
 8000440:	f04f 4390 	mov.w	r3, #1207959552	@ 0x48000000
 8000444:	6a1b      	ldr	r3, [r3, #32]
 8000446:	f04f 4290 	mov.w	r2, #1207959552	@ 0x48000000
 800044a:	f443 63e0 	orr.w	r3, r3, #1792	@ 0x700
 800044e:	6213      	str	r3, [r2, #32]
 8000450:	f04f 4390 	mov.w	r3, #1207959552	@ 0x48000000
 8000454:	689b      	ldr	r3, [r3, #8]
 8000456:	f04f 4290 	mov.w	r2, #1207959552	@ 0x48000000
 800045a:	f043 0330 	orr.w	r3, r3, #48	@ 0x30
 800045e:	6093      	str	r3, [r2, #8]
 8000460:	f04f 4390 	mov.w	r3, #1207959552	@ 0x48000000
 8000464:	685b      	ldr	r3, [r3, #4]
 8000466:	f04f 4290 	mov.w	r2, #1207959552	@ 0x48000000
 800046a:	f023 0304 	bic.w	r3, r3, #4
 800046e:	6053      	str	r3, [r2, #4]
 8000470:	f04f 4390 	mov.w	r3, #1207959552	@ 0x48000000
 8000474:	68db      	ldr	r3, [r3, #12]
 8000476:	f04f 4290 	mov.w	r2, #1207959552	@ 0x48000000
 800047a:	f023 0330 	bic.w	r3, r3, #48	@ 0x30
 800047e:	60d3      	str	r3, [r2, #12]
 8000480:	4b18      	ldr	r3, [pc, #96]	@ (80004e4 <gpio_af7_usart2_pa2_pd6+0xe4>)
 8000482:	681b      	ldr	r3, [r3, #0]
 8000484:	4a17      	ldr	r2, [pc, #92]	@ (80004e4 <gpio_af7_usart2_pa2_pd6+0xe4>)
 8000486:	f423 5340 	bic.w	r3, r3, #12288	@ 0x3000
 800048a:	6013      	str	r3, [r2, #0]
 800048c:	4b15      	ldr	r3, [pc, #84]	@ (80004e4 <gpio_af7_usart2_pa2_pd6+0xe4>)
 800048e:	681b      	ldr	r3, [r3, #0]
 8000490:	4a14      	ldr	r2, [pc, #80]	@ (80004e4 <gpio_af7_usart2_pa2_pd6+0xe4>)
 8000492:	f443 5300 	orr.w	r3, r3, #8192	@ 0x2000
 8000496:	6013      	str	r3, [r2, #0]
 8000498:	4b12      	ldr	r3, [pc, #72]	@ (80004e4 <gpio_af7_usart2_pa2_pd6+0xe4>)
 800049a:	6a1b      	ldr	r3, [r3, #32]
 800049c:	4a11      	ldr	r2, [pc, #68]	@ (80004e4 <gpio_af7_usart2_pa2_pd6+0xe4>)
 800049e:	f023 6370 	bic.w	r3, r3, #251658240	@ 0xf000000
 80004a2:	6213      	str	r3, [r2, #32]
 80004a4:	4b0f      	ldr	r3, [pc, #60]	@ (80004e4 <gpio_af7_usart2_pa2_pd6+0xe4>)
 80004a6:	6a1b      	ldr	r3, [r3, #32]
 80004a8:	4a0e      	ldr	r2, [pc, #56]	@ (80004e4 <gpio_af7_usart2_pa2_pd6+0xe4>)
 80004aa:	f043 63e0 	orr.w	r3, r3, #117440512	@ 0x7000000
 80004ae:	6213      	str	r3, [r2, #32]
 80004b0:	4b0c      	ldr	r3, [pc, #48]	@ (80004e4 <gpio_af7_usart2_pa2_pd6+0xe4>)
 80004b2:	689b      	ldr	r3, [r3, #8]
 80004b4:	4a0b      	ldr	r2, [pc, #44]	@ (80004e4 <gpio_af7_usart2_pa2_pd6+0xe4>)
 80004b6:	f443 5340 	orr.w	r3, r3, #12288	@ 0x3000
 80004ba:	6093      	str	r3, [r2, #8]
 80004bc:	4b09      	ldr	r3, [pc, #36]	@ (80004e4 <gpio_af7_usart2_pa2_pd6+0xe4>)
 80004be:	685b      	ldr	r3, [r3, #4]
 80004c0:	4a08      	ldr	r2, [pc, #32]	@ (80004e4 <gpio_af7_usart2_pa2_pd6+0xe4>)
 80004c2:	f023 0340 	bic.w	r3, r3, #64	@ 0x40
 80004c6:	6053      	str	r3, [r2, #4]
 80004c8:	4b06      	ldr	r3, [pc, #24]	@ (80004e4 <gpio_af7_usart2_pa2_pd6+0xe4>)
 80004ca:	68db      	ldr	r3, [r3, #12]
 80004cc:	4a05      	ldr	r2, [pc, #20]	@ (80004e4 <gpio_af7_usart2_pa2_pd6+0xe4>)
 80004ce:	f423 5340 	bic.w	r3, r3, #12288	@ 0x3000
 80004d2:	60d3      	str	r3, [r2, #12]
 80004d4:	bf00      	nop
 80004d6:	46bd      	mov	sp, r7
 80004d8:	f85d 7b04 	ldr.w	r7, [sp], #4
 80004dc:	4770      	bx	lr
 80004de:	bf00      	nop
 80004e0:	40021000 	.word	0x40021000
 80004e4:	48000c00 	.word	0x48000c00

080004e8 <uart2_init>:
 80004e8:	b580      	push	{r7, lr}
 80004ea:	b084      	sub	sp, #16
 80004ec:	af00      	add	r7, sp, #0
 80004ee:	6078      	str	r0, [r7, #4]
 80004f0:	f7ff ff86 	bl	8000400 <gpio_af7_usart2_pa2_pd6>
 80004f4:	4b2a      	ldr	r3, [pc, #168]	@ (80005a0 <uart2_init+0xb8>)
 80004f6:	6d9b      	ldr	r3, [r3, #88]	@ 0x58
 80004f8:	4a29      	ldr	r2, [pc, #164]	@ (80005a0 <uart2_init+0xb8>)
 80004fa:	f443 3300 	orr.w	r3, r3, #131072	@ 0x20000
 80004fe:	6593      	str	r3, [r2, #88]	@ 0x58
 8000500:	4b28      	ldr	r3, [pc, #160]	@ (80005a4 <uart2_init+0xbc>)
 8000502:	681b      	ldr	r3, [r3, #0]
 8000504:	4a27      	ldr	r2, [pc, #156]	@ (80005a4 <uart2_init+0xbc>)
 8000506:	f023 0301 	bic.w	r3, r3, #1
 800050a:	6013      	str	r3, [r2, #0]
 800050c:	bf00      	nop
 800050e:	4b25      	ldr	r3, [pc, #148]	@ (80005a4 <uart2_init+0xbc>)
 8000510:	69db      	ldr	r3, [r3, #28]
 8000512:	f403 03c0 	and.w	r3, r3, #6291456	@ 0x600000
 8000516:	2b00      	cmp	r3, #0
 8000518:	d1f9      	bne.n	800050e <uart2_init+0x26>
 800051a:	4b22      	ldr	r3, [pc, #136]	@ (80005a4 <uart2_init+0xbc>)
 800051c:	681b      	ldr	r3, [r3, #0]
 800051e:	4a21      	ldr	r2, [pc, #132]	@ (80005a4 <uart2_init+0xbc>)
 8000520:	f023 5380 	bic.w	r3, r3, #268435456	@ 0x10000000
 8000524:	f423 4316 	bic.w	r3, r3, #38400	@ 0x9600
 8000528:	6013      	str	r3, [r2, #0]
 800052a:	687b      	ldr	r3, [r7, #4]
 800052c:	085b      	lsrs	r3, r3, #1
 800052e:	f503 1374 	add.w	r3, r3, #3997696	@ 0x3d0000
 8000532:	f503 6310 	add.w	r3, r3, #2304	@ 0x900
 8000536:	687a      	ldr	r2, [r7, #4]
 8000538:	fbb3 f3f2 	udiv	r3, r3, r2
 800053c:	60fb      	str	r3, [r7, #12]
 800053e:	4a19      	ldr	r2, [pc, #100]	@ (80005a4 <uart2_init+0xbc>)
 8000540:	68fb      	ldr	r3, [r7, #12]
 8000542:	60d3      	str	r3, [r2, #12]
 8000544:	4b17      	ldr	r3, [pc, #92]	@ (80005a4 <uart2_init+0xbc>)
 8000546:	685b      	ldr	r3, [r3, #4]
 8000548:	4a16      	ldr	r2, [pc, #88]	@ (80005a4 <uart2_init+0xbc>)
 800054a:	f423 5340 	bic.w	r3, r3, #12288	@ 0x3000
 800054e:	6053      	str	r3, [r2, #4]
 8000550:	4b14      	ldr	r3, [pc, #80]	@ (80005a4 <uart2_init+0xbc>)
 8000552:	681b      	ldr	r3, [r3, #0]
 8000554:	4a13      	ldr	r2, [pc, #76]	@ (80005a4 <uart2_init+0xbc>)
 8000556:	f043 0301 	orr.w	r3, r3, #1
 800055a:	6013      	str	r3, [r2, #0]
 800055c:	4b11      	ldr	r3, [pc, #68]	@ (80005a4 <uart2_init+0xbc>)
 800055e:	689b      	ldr	r3, [r3, #8]
 8000560:	4a10      	ldr	r2, [pc, #64]	@ (80005a4 <uart2_init+0xbc>)
 8000562:	f423 633c 	bic.w	r3, r3, #3008	@ 0xbc0
 8000566:	f023 0309 	bic.w	r3, r3, #9
 800056a:	6093      	str	r3, [r2, #8]
 800056c:	4b0d      	ldr	r3, [pc, #52]	@ (80005a4 <uart2_init+0xbc>)
 800056e:	681b      	ldr	r3, [r3, #0]
 8000570:	4a0c      	ldr	r2, [pc, #48]	@ (80005a4 <uart2_init+0xbc>)
 8000572:	f043 030c 	orr.w	r3, r3, #12
 8000576:	6013      	str	r3, [r2, #0]
 8000578:	bf00      	nop
 800057a:	4b0a      	ldr	r3, [pc, #40]	@ (80005a4 <uart2_init+0xbc>)
 800057c:	69db      	ldr	r3, [r3, #28]
 800057e:	f403 1300 	and.w	r3, r3, #2097152	@ 0x200000
 8000582:	2b00      	cmp	r3, #0
 8000584:	d0f9      	beq.n	800057a <uart2_init+0x92>
 8000586:	bf00      	nop
 8000588:	4b06      	ldr	r3, [pc, #24]	@ (80005a4 <uart2_init+0xbc>)
 800058a:	69db      	ldr	r3, [r3, #28]
 800058c:	f403 0380 	and.w	r3, r3, #4194304	@ 0x400000
 8000590:	2b00      	cmp	r3, #0
 8000592:	d0f9      	beq.n	8000588 <uart2_init+0xa0>
 8000594:	bf00      	nop
 8000596:	bf00      	nop
 8000598:	3710      	adds	r7, #16
 800059a:	46bd      	mov	sp, r7
 800059c:	bd80      	pop	{r7, pc}
 800059e:	bf00      	nop
 80005a0:	40021000 	.word	0x40021000
 80005a4:	40004400 	.word	0x40004400

080005a8 <uart2_putc>:
 80005a8:	b480      	push	{r7}
 80005aa:	b083      	sub	sp, #12
 80005ac:	af00      	add	r7, sp, #0
 80005ae:	4603      	mov	r3, r0
 80005b0:	71fb      	strb	r3, [r7, #7]
 80005b2:	bf00      	nop
 80005b4:	4b07      	ldr	r3, [pc, #28]	@ (80005d4 <uart2_putc+0x2c>)
 80005b6:	69db      	ldr	r3, [r3, #28]
 80005b8:	f003 0380 	and.w	r3, r3, #128	@ 0x80
 80005bc:	2b00      	cmp	r3, #0
 80005be:	d0f9      	beq.n	80005b4 <uart2_putc+0xc>
 80005c0:	4b04      	ldr	r3, [pc, #16]	@ (80005d4 <uart2_putc+0x2c>)
 80005c2:	79fa      	ldrb	r2, [r7, #7]
 80005c4:	b292      	uxth	r2, r2
 80005c6:	851a      	strh	r2, [r3, #40]	@ 0x28
 80005c8:	bf00      	nop
 80005ca:	370c      	adds	r7, #12
 80005cc:	46bd      	mov	sp, r7
 80005ce:	f85d 7b04 	ldr.w	r7, [sp], #4
 80005d2:	4770      	bx	lr
 80005d4:	40004400 	.word	0x40004400

080005d8 <uart2_write>:
 80005d8:	b580      	push	{r7, lr}
 80005da:	b082      	sub	sp, #8
 80005dc:	af00      	add	r7, sp, #0
 80005de:	6078      	str	r0, [r7, #4]
 80005e0:	e00d      	b.n	80005fe <uart2_write+0x26>
 80005e2:	687b      	ldr	r3, [r7, #4]
 80005e4:	781b      	ldrb	r3, [r3, #0]
 80005e6:	2b0a      	cmp	r3, #10
 80005e8:	d102      	bne.n	80005f0 <uart2_write+0x18>
 80005ea:	200d      	movs	r0, #13
 80005ec:	f7ff ffdc 	bl	80005a8 <uart2_putc>
 80005f0:	687b      	ldr	r3, [r7, #4]
 80005f2:	1c5a      	adds	r2, r3, #1
 80005f4:	607a      	str	r2, [r7, #4]
 80005f6:	781b      	ldrb	r3, [r3, #0]
 80005f8:	4618      	mov	r0, r3
 80005fa:	f7ff ffd5 	bl	80005a8 <uart2_putc>
 80005fe:	687b      	ldr	r3, [r7, #4]
 8000600:	781b      	ldrb	r3, [r3, #0]
 8000602:	2b00      	cmp	r3, #0
 8000604:	d1ed      	bne.n	80005e2 <uart2_write+0xa>
 8000606:	bf00      	nop
 8000608:	bf00      	nop
 800060a:	3708      	adds	r7, #8
 800060c:	46bd      	mov	sp, r7
 800060e:	bd80      	pop	{r7, pc}

08000610 <uart2_getc_blocking>:
 8000610:	b480      	push	{r7}
 8000612:	af00      	add	r7, sp, #0
 8000614:	bf00      	nop
 8000616:	4b07      	ldr	r3, [pc, #28]	@ (8000634 <uart2_getc_blocking+0x24>)
 8000618:	69db      	ldr	r3, [r3, #28]
 800061a:	f003 0320 	and.w	r3, r3, #32
 800061e:	2b00      	cmp	r3, #0
 8000620:	d0f9      	beq.n	8000616 <uart2_getc_blocking+0x6>
 8000622:	4b04      	ldr	r3, [pc, #16]	@ (8000634 <uart2_getc_blocking+0x24>)
 8000624:	8c9b      	ldrh	r3, [r3, #36]	@ 0x24
 8000626:	b29b      	uxth	r3, r3
 8000628:	b2db      	uxtb	r3, r3
 800062a:	4618      	mov	r0, r3
 800062c:	46bd      	mov	sp, r7
 800062e:	f85d 7b04 	ldr.w	r7, [sp], #4
 8000632:	4770      	bx	lr
 8000634:	40004400 	.word	0x40004400

08000638 <Reset_Handler>:
 8000638:	f8df d034 	ldr.w	sp, [pc, #52]	@ 8000670 <LoopForever+0x2>
 800063c:	f7ff fece 	bl	80003dc <SystemInit>
 8000640:	480c      	ldr	r0, [pc, #48]	@ (8000674 <LoopForever+0x6>)
 8000642:	490d      	ldr	r1, [pc, #52]	@ (8000678 <LoopForever+0xa>)
 8000644:	4a0d      	ldr	r2, [pc, #52]	@ (800067c <LoopForever+0xe>)
 8000646:	2300      	movs	r3, #0
 8000648:	e002      	b.n	8000650 <LoopCopyDataInit>

0800064a <CopyDataInit>:
 800064a:	58d4      	ldr	r4, [r2, r3]
 800064c:	50c4      	str	r4, [r0, r3]
 800064e:	3304      	adds	r3, #4

08000650 <LoopCopyDataInit>:
 8000650:	18c4      	adds	r4, r0, r3
 8000652:	428c      	cmp	r4, r1
 8000654:	d3f9      	bcc.n	800064a <CopyDataInit>
 8000656:	4a0a      	ldr	r2, [pc, #40]	@ (8000680 <LoopForever+0x12>)
 8000658:	4c0a      	ldr	r4, [pc, #40]	@ (8000684 <LoopForever+0x16>)
 800065a:	2300      	movs	r3, #0
 800065c:	e001      	b.n	8000662 <LoopFillZerobss>

0800065e <FillZerobss>:
 800065e:	6013      	str	r3, [r2, #0]
 8000660:	3204      	adds	r2, #4

08000662 <LoopFillZerobss>:
 8000662:	42a2      	cmp	r2, r4
 8000664:	d3fb      	bcc.n	800065e <FillZerobss>
 8000666:	f000 f811 	bl	800068c <__libc_init_array>
 800066a:	f7ff fdbf 	bl	80001ec <main>

0800066e <LoopForever>:
 800066e:	e7fe      	b.n	800066e <LoopForever>
 8000670:	20040000 	.word	0x20040000
 8000674:	20000000 	.word	0x20000000
 8000678:	20000000 	.word	0x20000000
 800067c:	08000728 	.word	0x08000728
 8000680:	20000000 	.word	0x20000000
 8000684:	2000001c 	.word	0x2000001c

08000688 <ADC1_2_IRQHandler>:
 8000688:	e7fe      	b.n	8000688 <ADC1_2_IRQHandler>
	...

0800068c <__libc_init_array>:
 800068c:	b570      	push	{r4, r5, r6, lr}
 800068e:	4d0d      	ldr	r5, [pc, #52]	@ (80006c4 <__libc_init_array+0x38>)
 8000690:	4c0d      	ldr	r4, [pc, #52]	@ (80006c8 <__libc_init_array+0x3c>)
 8000692:	1b64      	subs	r4, r4, r5
 8000694:	10a4      	asrs	r4, r4, #2
 8000696:	2600      	movs	r6, #0
 8000698:	42a6      	cmp	r6, r4
 800069a:	d109      	bne.n	80006b0 <__libc_init_array+0x24>
 800069c:	4d0b      	ldr	r5, [pc, #44]	@ (80006cc <__libc_init_array+0x40>)
 800069e:	4c0c      	ldr	r4, [pc, #48]	@ (80006d0 <__libc_init_array+0x44>)
 80006a0:	f000 f818 	bl	80006d4 <_init>
 80006a4:	1b64      	subs	r4, r4, r5
 80006a6:	10a4      	asrs	r4, r4, #2
 80006a8:	2600      	movs	r6, #0
 80006aa:	42a6      	cmp	r6, r4
 80006ac:	d105      	bne.n	80006ba <__libc_init_array+0x2e>
 80006ae:	bd70      	pop	{r4, r5, r6, pc}
 80006b0:	f855 3b04 	ldr.w	r3, [r5], #4
 80006b4:	4798      	blx	r3
 80006b6:	3601      	adds	r6, #1
 80006b8:	e7ee      	b.n	8000698 <__libc_init_array+0xc>
 80006ba:	f855 3b04 	ldr.w	r3, [r5], #4
 80006be:	4798      	blx	r3
 80006c0:	3601      	adds	r6, #1
 80006c2:	e7f2      	b.n	80006aa <__libc_init_array+0x1e>
 80006c4:	08000720 	.word	0x08000720
 80006c8:	08000720 	.word	0x08000720
 80006cc:	08000720 	.word	0x08000720
 80006d0:	08000724 	.word	0x08000724

080006d4 <_init>:
 80006d4:	b5f8      	push	{r3, r4, r5, r6, r7, lr}
 80006d6:	bf00      	nop
 80006d8:	bcf8      	pop	{r3, r4, r5, r6, r7}
 80006da:	bc08      	pop	{r3}
 80006dc:	469e      	mov	lr, r3
 80006de:	4770      	bx	lr

080006e0 <_fini>:
 80006e0:	b5f8      	push	{r3, r4, r5, r6, r7, lr}
 80006e2:	bf00      	nop
 80006e4:	bcf8      	pop	{r3, r4, r5, r6, r7}
 80006e6:	bc08      	pop	{r3}
 80006e8:	469e      	mov	lr, r3
 80006ea:	4770      	bx	lr
